target datalayout = "e-m:e-p270:32:32-p271:32:32-p272:64:64-i64:64-i128:128-f80:128-n8:16:32:64-S128"
target triple = "x86_64-unknown-linux-gnu"

%struct.AioContext = type { %struct._GSource, %struct.QemuRecMutex, ptr, %struct.AioHandlerList, %struct.AioHandlerList, i32, %struct.QemuLockCnt, %struct.BHList, %struct.anon.1, i8, %struct.EventNotifier, %struct.anon.2, ptr, i32, i32, ptr, ptr, %struct.io_uring, %struct.AioHandlerSList, %struct.QEMUTimerListGroup, i32, i64, i64, i64, i64, i64, %struct.AioHandlerList, i8, i32, ptr }
%struct._GSource = type { ptr, ptr, ptr, i32, ptr, i32, i32, i32, ptr, ptr, ptr, ptr, ptr }
%struct.QemuRecMutex = type { %struct.QemuMutex }
%struct.QemuMutex = type { %union.pthread_mutex_t, i8 }
%union.pthread_mutex_t = type { %struct.__pthread_mutex_s }
%struct.__pthread_mutex_s = type { i32, i32, i32, i32, i32, i16, i16, %struct.__pthread_internal_list }
%struct.__pthread_internal_list = type { ptr, ptr }
%struct.QemuLockCnt = type { i32 }
%struct.BHList = type { ptr }
%struct.anon.1 = type { ptr, ptr }
%struct.EventNotifier = type { i32, i32, i8 }
%struct.anon.2 = type { ptr }
%struct.io_uring = type { %struct.io_uring_sq, %struct.io_uring_cq, i32, i32, i32, [3 x i32] }
%struct.io_uring_sq = type { ptr, ptr, ptr, ptr, ptr, ptr, ptr, ptr, i32, i32, i64, ptr, [4 x i32] }
%struct.io_uring_cq = type { ptr, ptr, ptr, ptr, ptr, ptr, ptr, i64, ptr, [4 x i32] }
%struct.AioHandlerSList = type { ptr }
%struct.QEMUTimerListGroup = type { [4 x ptr] }
%struct.AioHandlerList = type { ptr }

; Function Attrs: nounwind sspstrong uwtable
define dso_local ptr @aio_setup_linux_io_uring(ptr noundef %ctx, ptr noundef %errp) #0 {
entry:
  %retval = alloca ptr, align 8
  %ctx.addr = alloca ptr, align 8
  %errp.addr = alloca ptr, align 8
  store ptr %ctx, ptr %ctx.addr, align 8
  store ptr %errp, ptr %errp.addr, align 8
  %0 = load ptr, ptr %ctx.addr, align 8
  %linux_io_uring = getelementptr inbounds %struct.AioContext, ptr %0, i32 0, i32 16
  %1 = load ptr, ptr %linux_io_uring, align 8
  %tobool = icmp ne ptr %1, null
  br i1 %tobool, label %if.then, label %if.end

if.then:                                          ; preds = %entry
  %2 = load ptr, ptr %ctx.addr, align 8
  %linux_io_uring1 = getelementptr inbounds %struct.AioContext, ptr %2, i32 0, i32 16
  %3 = load ptr, ptr %linux_io_uring1, align 8
  store ptr %3, ptr %retval, align 8
  br label %return

if.end:                                           ; preds = %entry
  %4 = load ptr, ptr %errp.addr, align 8
  %call = call ptr @luring_init(ptr noundef %4)
  %5 = load ptr, ptr %ctx.addr, align 8
  %linux_io_uring2 = getelementptr inbounds %struct.AioContext, ptr %5, i32 0, i32 16
  store ptr %call, ptr %linux_io_uring2, align 8
  %6 = load ptr, ptr %ctx.addr, align 8
  %linux_io_uring3 = getelementptr inbounds %struct.AioContext, ptr %6, i32 0, i32 16
  %7 = load ptr, ptr %linux_io_uring3, align 8
  %tobool4 = icmp ne ptr %7, null
  br i1 %tobool4, label %if.end6, label %if.then5

if.then5:                                         ; preds = %if.end
  store ptr null, ptr %retval, align 8
  br label %return

if.end6:                                          ; preds = %if.end
  %8 = load ptr, ptr %ctx.addr, align 8
  %linux_io_uring7 = getelementptr inbounds %struct.AioContext, ptr %8, i32 0, i32 16
  %9 = load ptr, ptr %linux_io_uring7, align 8
  %10 = load ptr, ptr %ctx.addr, align 8
  call void @luring_attach_aio_context(ptr noundef %9, ptr noundef %10)
  %11 = load ptr, ptr %ctx.addr, align 8
  %linux_io_uring8 = getelementptr inbounds %struct.AioContext, ptr %11, i32 0, i32 16
  %12 = load ptr, ptr %linux_io_uring8, align 8
  store ptr %12, ptr %retval, align 8
  br label %return

return:                                           ; preds = %if.end6, %if.then5, %if.then
  %13 = load ptr, ptr %retval, align 8
  ret ptr %13
}