; Function Attrs: nounwind sspstrong uwtable
define dso_local ptr @aio_setup_linux_io_uring(ptr noundef %ctx, ptr noundef %errp) local_unnamed_addr #0 {
entry:
  %linux_io_uring = getelementptr inbounds nuw i8, ptr %ctx, i64 248
  %0 = load ptr, ptr %linux_io_uring, align 8
  %tobool.not = icmp eq ptr %0, null
  br i1 %tobool.not, label %if.end, label %return

if.end:                                           ; preds = %entry
  %call = tail call ptr @luring_init(ptr noundef %errp) #13
  store ptr %call, ptr %linux_io_uring, align 8
  %tobool4.not = icmp eq ptr %call, null
  br i1 %tobool4.not, label %return, label %if.end6

if.end6:                                          ; preds = %if.end
  tail call void @luring_attach_aio_context(ptr noundef nonnull %call, ptr noundef nonnull %ctx) #13
  %1 = load ptr, ptr %linux_io_uring, align 8
  br label %return

return:                                           ; preds = %if.end, %entry, %if.end6
  %retval.0 = phi ptr [ %1, %if.end6 ], [ %0, %entry ], [ null, %if.end ]
  ret ptr %retval.0
}